; Function Attrs: mustprogress uwtable
define internal void @_ZL25pipeline_reassign_contextP8PJconstsP6pj_ctx(ptr noundef readonly captures(none) %0, ptr noundef %1) #0 {
  %3 = getelementptr inbounds nuw i8, ptr %0, i64 88
  %4 = load ptr, ptr %3, align 8, !tbaa !77
  %5 = getelementptr inbounds nuw i8, ptr %4, i64 16
  %.val6 = load ptr, ptr %5, align 8, !tbaa !120
  %6 = getelementptr i8, ptr %4, i64 24
  %.val = load ptr, ptr %6, align 8, !tbaa !120
  %.not11 = icmp eq ptr %.val6, %.val
  br i1 %.not11, label %._crit_edge, label %.lr.ph

._crit_edge:                                      ; preds = %.lr.ph, %2
  ret void

.lr.ph:                                           ; preds = %2, %.lr.ph
  %.sroa.010.012 = phi ptr [ %8, %.lr.ph ], [ %.val6, %2 ]
  %7 = load ptr, ptr %.sroa.010.012, align 8, !tbaa !109
  tail call void @proj_assign_context(ptr noundef %7, ptr noundef %1)
  %8 = getelementptr inbounds nuw i8, ptr %.sroa.010.012, i64 16
  %.not = icmp eq ptr %8, %.val
  br i1 %.not, label %._crit_edge, label %.lr.ph
}